; ModuleID = '25/949.c'
source_filename = "25/949.c"
target datalayout = "e-m:e-p270:32:32-p271:32:32-p272:64:64-i64:64-f80:128-n8:16:32:64-S128"
target triple = "x86_64-pc-linux-gnu"

@.str = private unnamed_addr constant [3 x i8] c"%d\00", align 1

; Function Attrs: noinline nounwind uwtable
define dso_local i32 @main() #0 {
  %1 = alloca i32, align 4
  %2 = alloca i32, align 4
  %3 = alloca i32, align 4
  %4 = alloca i32, align 4
  %5 = alloca i32, align 4
  %6 = alloca i32, align 4
  %7 = alloca i32, align 4
  %8 = alloca i32, align 4
  %9 = alloca [50000 x i32], align 16
  store i32 0, i32* %1, align 4
  store i32 1, i32* %6, align 4
  store i32 0, i32* %8, align 4
  %10 = bitcast [50000 x i32]* %9 to i8*
  call void @llvm.memset.p0i8.i64(i8* align 16 %10, i8 0, i64 200000, i1 false)
  %11 = call i32 (i8*, ...) @__isoc99_scanf(i8* getelementptr inbounds ([3 x i8], [3 x i8]* @.str, i64 0, i64 0), i32* %2)
  %12 = getelementptr inbounds [50000 x i32], [50000 x i32]* %9, i64 0, i64 0
  store i32 1, i32* %12, align 16
  store i32 1, i32* %7, align 4
  store i32 0, i32* %4, align 4
  br label %13

13:                                               ; preds = %77, %0
  %14 = load i32, i32* %4, align 4
  %15 = load i32, i32* %2, align 4
  %16 = icmp slt i32 %14, %15
  br i1 %16, label %17, label %80

17:                                               ; preds = %13
  %18 = load i32, i32* %7, align 4
  store i32 %18, i32* %6, align 4
  store i32 0, i32* %3, align 4
  br label %19

19:                                               ; preds = %73, %17
  %20 = load i32, i32* %3, align 4
  %21 = load i32, i32* %6, align 4
  %22 = icmp slt i32 %20, %21
  br i1 %22, label %23, label %76

23:                                               ; preds = %19
  %24 = load i32, i32* %3, align 4
  %25 = sext i32 %24 to i64
  %26 = getelementptr inbounds [50000 x i32], [50000 x i32]* %9, i64 0, i64 %25
  %27 = load i32, i32* %26, align 4
  %28 = mul nsw i32 2, %27
  %29 = load i32, i32* %3, align 4
  %30 = sext i32 %29 to i64
  %31 = getelementptr inbounds [50000 x i32], [50000 x i32]* %9, i64 0, i64 %30
  store i32 %28, i32* %31, align 4
  %32 = load i32, i32* %3, align 4
  %33 = sext i32 %32 to i64
  %34 = getelementptr inbounds [50000 x i32], [50000 x i32]* %9, i64 0, i64 %33
  %35 = load i32, i32* %34, align 4
  %36 = load i32, i32* %8, align 4
  %37 = add nsw i32 %35, %36
  %38 = icmp sge i32 %37, 10
  br i1 %38, label %39, label %50

39:                                               ; preds = %23
  %40 = load i32, i32* %3, align 4
  %41 = sext i32 %40 to i64
  %42 = getelementptr inbounds [50000 x i32], [50000 x i32]* %9, i64 0, i64 %41
  %43 = load i32, i32* %42, align 4
  %44 = load i32, i32* %8, align 4
  %45 = add nsw i32 %43, %44
  %46 = sub nsw i32 %45, 10
  %47 = load i32, i32* %3, align 4
  %48 = sext i32 %47 to i64
  %49 = getelementptr inbounds [50000 x i32], [50000 x i32]* %9, i64 0, i64 %48
  store i32 %46, i32* %49, align 4
  store i32 1, i32* %8, align 4
  br label %57

50:                                               ; preds = %23
  %51 = load i32, i32* %8, align 4
  %52 = load i32, i32* %3, align 4
  %53 = sext i32 %52 to i64
  %54 = getelementptr inbounds [50000 x i32], [50000 x i32]* %9, i64 0, i64 %53
  %55 = load i32, i32* %54, align 4
  %56 = add nsw i32 %55, %51
  store i32 %56, i32* %54, align 4
  store i32 0, i32* %8, align 4
  br label %57

57:                                               ; preds = %50, %39
  %58 = load i32, i32* %3, align 4
  %59 = load i32, i32* %6, align 4
  %60 = sub nsw i32 %59, 1
  %61 = icmp eq i32 %58, %60
  br i1 %61, label %62, label %72

62:                                               ; preds = %57
  %63 = load i32, i32* %8, align 4
  %64 = icmp eq i32 %63, 1
  br i1 %64, label %65, label %72

65:                                               ; preds = %62
  %66 = load i32, i32* %3, align 4
  %67 = add nsw i32 %66, 1
  %68 = sext i32 %67 to i64
  %69 = getelementptr inbounds [50000 x i32], [50000 x i32]* %9, i64 0, i64 %68
  store i32 1, i32* %69, align 4
  %70 = load i32, i32* %7, align 4
  %71 = add nsw i32 %70, 1
  store i32 %71, i32* %7, align 4
  store i32 0, i32* %8, align 4
  br label %72

72:                                               ; preds = %65, %62, %57
  br label %73

73:                                               ; preds = %72
  %74 = load i32, i32* %3, align 4
  %75 = add nsw i32 %74, 1
  store i32 %75, i32* %3, align 4
  br label %19

76:                                               ; preds = %19
  br label %77

77:                                               ; preds = %76
  %78 = load i32, i32* %4, align 4
  %79 = add nsw i32 %78, 1
  store i32 %79, i32* %4, align 4
  br label %13

80:                                               ; preds = %13
  %81 = load i32, i32* %7, align 4
  %82 = sub nsw i32 %81, 1
  store i32 %82, i32* %4, align 4
  br label %83

83:                                               ; preds = %92, %80
  %84 = load i32, i32* %4, align 4
  %85 = icmp sge i32 %84, 0
  br i1 %85, label %86, label %95

86:                                               ; preds = %83
  %87 = load i32, i32* %4, align 4
  %88 = sext i32 %87 to i64
  %89 = getelementptr inbounds [50000 x i32], [50000 x i32]* %9, i64 0, i64 %88
  %90 = load i32, i32* %89, align 4
  %91 = call i32 (i8*, ...) @printf(i8* getelementptr inbounds ([3 x i8], [3 x i8]* @.str, i64 0, i64 0), i32 %90)
  br label %92

92:                                               ; preds = %86
  %93 = load i32, i32* %4, align 4
  %94 = add nsw i32 %93, -1
  store i32 %94, i32* %4, align 4
  br label %83

95:                                               ; preds = %83
  %96 = call i32 @getchar()
  %97 = call i32 @getchar()
  %98 = call i32 @getchar()
  %99 = load i32, i32* %1, align 4
  ret i32 %99
}

; Function Attrs: argmemonly nounwind willreturn
declare void @llvm.memset.p0i8.i64(i8* nocapture writeonly, i8, i64, i1 immarg) #1

declare dso_local i32 @__isoc99_scanf(i8*, ...) #2

declare dso_local i32 @printf(i8*, ...) #2

declare dso_local i32 @getchar() #2


!llvm.module.flags = !{!0}
!llvm.ident = !{!1}

!0 = !{i32 1, !"wchar_size", i32 4}
!1 = !{!"clang version 10.0.0-4ubuntu1 "}
